; Function Attrs: mustprogress uwtable
define dso_local void @_ZN4pbrt12AOIntegrator6CreateERKNS_19ParameterDictionaryENS_8SpectrumENS_6CameraENS_7SamplerENS_9PrimitiveESt6vectorINS_5LightESaIS9_EEPKNS_7FileLocE(ptr noalias sret(%"class.std::unique_ptr.207") align 8 %agg.result, ptr noundef nonnull align 8 dereferenceable(108) %parameters, ptr noundef %illuminant, ptr noundef %camera, ptr noundef %sampler, ptr noundef %aggregate, ptr noundef %lights, ptr nocapture readnone %loc) local_unnamed_addr #1 align 2 personality ptr @__gxx_personality_v0 {
entry:
  %cosSample = alloca i8, align 1
  %ref.tmp = alloca %"class.std::__cxx11::basic_string", align 8
  %ref.tmp1 = alloca %"class.std::allocator.10", align 1
  %maxDist = alloca float, align 4
  %ref.tmp4 = alloca %"class.std::__cxx11::basic_string", align 8
  %ref.tmp5 = alloca %"class.std::allocator.10", align 1
  call void @_ZNSaIcEC1Ev(ptr noundef nonnull align 1 dereferenceable(1) %ref.tmp1) #31
  %call.i6 = invoke noundef ptr @_ZNSt7__cxx1112basic_stringIcSt11char_traitsIcESaIcEE13_M_local_dataEv(ptr noundef nonnull align 8 dereferenceable(32) %ref.tmp)
          to label %call.i.noexc unwind label %lpad

call.i.noexc:                                     ; preds = %entry
  invoke void @_ZNSt7__cxx1112basic_stringIcSt11char_traitsIcESaIcEE12_Alloc_hiderC1EPcRKS3_(ptr noundef nonnull align 8 dereferenceable(8) %ref.tmp, ptr noundef %call.i6, ptr noundef nonnull align 1 dereferenceable(1) %ref.tmp1)
          to label %.noexc unwind label %lpad

.noexc:                                           ; preds = %call.i.noexc
  invoke void @_ZNSt7__cxx1112basic_stringIcSt11char_traitsIcESaIcEE12_M_constructIPKcEEvT_S8_St20forward_iterator_tag(ptr noundef nonnull align 8 dereferenceable(32) %ref.tmp, ptr noundef nonnull @.str.54, ptr noundef nonnull getelementptr inbounds ([10 x i8], ptr @.str.54, i64 0, i64 9))
          to label %invoke.cont unwind label %lpad.i

lpad.i:                                           ; preds = %.noexc
  %0 = landingpad { ptr, i32 }
          cleanup
  call void @_ZNSaIcED2Ev(ptr noundef nonnull align 1 dereferenceable(1) %ref.tmp) #31
  br label %eh.resume

invoke.cont:                                      ; preds = %.noexc
  %call = invoke noundef zeroext i1 @_ZNK4pbrt19ParameterDictionary10GetOneBoolERKNSt7__cxx1112basic_stringIcSt11char_traitsIcESaIcEEEb(ptr noundef nonnull align 8 dereferenceable(108) %parameters, ptr noundef nonnull align 8 dereferenceable(32) %ref.tmp, i1 noundef zeroext true)
          to label %invoke.cont3 unwind label %lpad2

invoke.cont3:                                     ; preds = %invoke.cont
  call void @_ZNSt7__cxx1112basic_stringIcSt11char_traitsIcESaIcEED1Ev(ptr noundef nonnull align 8 dereferenceable(32) %ref.tmp) #31
  call void @_ZNSaIcED1Ev(ptr noundef nonnull align 1 dereferenceable(1) %ref.tmp1) #31
  %frombool = zext i1 %call to i8
  store i8 %frombool, ptr %cosSample, align 1
  call void @_ZNSaIcEC1Ev(ptr noundef nonnull align 1 dereferenceable(1) %ref.tmp5) #31
  %call.i11 = invoke noundef ptr @_ZNSt7__cxx1112basic_stringIcSt11char_traitsIcESaIcEE13_M_local_dataEv(ptr noundef nonnull align 8 dereferenceable(32) %ref.tmp4)
          to label %call.i.noexc10 unwind label %lpad6

call.i.noexc10:                                   ; preds = %invoke.cont3
  invoke void @_ZNSt7__cxx1112basic_stringIcSt11char_traitsIcESaIcEE12_Alloc_hiderC1EPcRKS3_(ptr noundef nonnull align 8 dereferenceable(8) %ref.tmp4, ptr noundef %call.i11, ptr noundef nonnull align 1 dereferenceable(1) %ref.tmp5)
          to label %.noexc12 unwind label %lpad6

.noexc12:                                         ; preds = %call.i.noexc10
  invoke void @_ZNSt7__cxx1112basic_stringIcSt11char_traitsIcESaIcEE12_M_constructIPKcEEvT_S8_St20forward_iterator_tag(ptr noundef nonnull align 8 dereferenceable(32) %ref.tmp4, ptr noundef nonnull @.str.55, ptr noundef nonnull getelementptr inbounds ([12 x i8], ptr @.str.55, i64 0, i64 11))
          to label %invoke.cont7 unwind label %lpad.i9

lpad.i9:                                          ; preds = %.noexc12
  %1 = landingpad { ptr, i32 }
          cleanup
  call void @_ZNSaIcED2Ev(ptr noundef nonnull align 1 dereferenceable(1) %ref.tmp4) #31
  br label %eh.resume

invoke.cont7:                                     ; preds = %.noexc12
  %call10 = invoke noundef float @_ZNK4pbrt19ParameterDictionary11GetOneFloatERKNSt7__cxx1112basic_stringIcSt11char_traitsIcESaIcEEEf(ptr noundef nonnull align 8 dereferenceable(108) %parameters, ptr noundef nonnull align 8 dereferenceable(32) %ref.tmp4, float noundef 0x7FF0000000000000)
          to label %invoke.cont9 unwind label %lpad8

invoke.cont9:                                     ; preds = %invoke.cont7
  call void @_ZNSt7__cxx1112basic_stringIcSt11char_traitsIcESaIcEED1Ev(ptr noundef nonnull align 8 dereferenceable(32) %ref.tmp4) #31
  call void @_ZNSaIcED1Ev(ptr noundef nonnull align 1 dereferenceable(1) %ref.tmp5) #31
  store float %call10, ptr %maxDist, align 4
  call void @_ZSt11make_uniqueIN4pbrt12AOIntegratorEJRbRfRNS0_6CameraERNS0_7SamplerERNS0_9PrimitiveERSt6vectorINS0_5LightESaISB_EERNS0_8SpectrumEEENSt8__detail9_MakeUniqIT_E15__single_objectEDpOT0_(ptr sret(%"class.std::unique_ptr.207") align 8 %agg.result, ptr noundef nonnull align 1 dereferenceable(1) %cosSample, ptr noundef nonnull align 4 dereferenceable(4) %maxDist, ptr noundef nonnull align 8 dereferenceable(8) %camera, ptr noundef nonnull align 8 dereferenceable(8) %sampler, ptr noundef nonnull align 8 dereferenceable(8) %aggregate, ptr noundef nonnull align 8 dereferenceable(24) %lights, ptr noundef nonnull align 8 dereferenceable(8) %illuminant)
  ret void

lpad:                                             ; preds = %call.i.noexc, %entry
  %2 = landingpad { ptr, i32 }
          cleanup
  br label %eh.resume

lpad2:                                            ; preds = %invoke.cont
  %3 = landingpad { ptr, i32 }
          cleanup
  call void @_ZNSt7__cxx1112basic_stringIcSt11char_traitsIcESaIcEED1Ev(ptr noundef nonnull align 8 dereferenceable(32) %ref.tmp) #31
  br label %eh.resume

lpad6:                                            ; preds = %call.i.noexc10, %invoke.cont3
  %4 = landingpad { ptr, i32 }
          cleanup
  br label %eh.resume

lpad8:                                            ; preds = %invoke.cont7
  %5 = landingpad { ptr, i32 }
          cleanup
  call void @_ZNSt7__cxx1112basic_stringIcSt11char_traitsIcESaIcEED1Ev(ptr noundef nonnull align 8 dereferenceable(32) %ref.tmp4) #31
  br label %eh.resume

eh.resume:                                        ; preds = %lpad8, %lpad.i9, %lpad6, %lpad2, %lpad.i, %lpad
  %ref.tmp5.sink = phi ptr [ %ref.tmp1, %lpad ], [ %ref.tmp1, %lpad.i ], [ %ref.tmp1, %lpad2 ], [ %ref.tmp5, %lpad6 ], [ %ref.tmp5, %lpad.i9 ], [ %ref.tmp5, %lpad8 ]
  %.pn3.pn = phi { ptr, i32 } [ %2, %lpad ], [ %0, %lpad.i ], [ %3, %lpad2 ], [ %4, %lpad6 ], [ %1, %lpad.i9 ], [ %5, %lpad8 ]
  call void @_ZNSaIcED1Ev(ptr noundef nonnull align 1 dereferenceable(1) %ref.tmp5.sink) #31
  resume { ptr, i32 } %.pn3.pn
}